; Function Attrs: mustprogress uwtable
define noundef zeroext i1 @_ZN32pxrInternal_v0_24__pxrReserved__17UsdSkelBlendShape20ValidatePointIndicesENS_6TfSpanIKiEEmPNSt7__cxx1112basic_stringIcSt11char_traitsIcESaIcEEE(ptr nocapture readonly %0, i64 %1, i64 noundef %2, ptr noundef %3) local_unnamed_addr #0 align 2 {
  %5 = alloca %"class.std::__cxx11::basic_string", align 8
  %6 = alloca %"class.std::__cxx11::basic_string", align 8
  %7 = icmp eq i64 %1, 0
  br i1 %7, label %.loopexit, label %.lr.ph

.lr.ph:                                           ; preds = %4, %17
  %.01528 = phi i64 [ %18, %17 ], [ 0, %4 ]
  %8 = getelementptr inbounds i32, ptr %0, i64 %.01528
  %9 = load i32, ptr %8, align 4
  %10 = icmp sgt i32 %9, -1
  br i1 %10, label %11, label %15

11:                                               ; preds = %.lr.ph
  %12 = zext nneg i32 %9 to i64
  %.not20 = icmp ugt i64 %2, %12
  br i1 %.not20, label %17, label %13

13:                                               ; preds = %11
  %.not21 = icmp eq ptr %3, null
  br i1 %.not21, label %.loopexit, label %14

14:                                               ; preds = %13
  call void (ptr, ptr, ...) @_ZN32pxrInternal_v0_24__pxrReserved__14TfStringPrintfB5cxx11EPKcz(ptr dead_on_unwind nonnull writable sret(%"class.std::__cxx11::basic_string") align 8 %5, ptr noundef nonnull @.str.5, i32 noundef %9, i64 noundef %.01528, i64 noundef %2)
  br label %.loopexit.sink.split

15:                                               ; preds = %.lr.ph
  %.not = icmp eq ptr %3, null
  br i1 %.not, label %.loopexit, label %16

16:                                               ; preds = %15
  call void (ptr, ptr, ...) @_ZN32pxrInternal_v0_24__pxrReserved__14TfStringPrintfB5cxx11EPKcz(ptr dead_on_unwind nonnull writable sret(%"class.std::__cxx11::basic_string") align 8 %6, ptr noundef nonnull @.str.6, i32 noundef %9, i64 noundef %.01528)
  br label %.loopexit.sink.split

17:                                               ; preds = %11
  %18 = add nuw i64 %.01528, 1
  %exitcond.not = icmp eq i64 %18, %1
  br i1 %exitcond.not, label %.loopexit, label %.lr.ph, !llvm.loop !17

.loopexit.sink.split:                             ; preds = %14, %16
  %.sink38 = phi ptr [ %6, %16 ], [ %5, %14 ]
  %19 = call noundef nonnull align 8 dereferenceable(32) ptr @_ZNSt7__cxx1112basic_stringIcSt11char_traitsIcESaIcEEaSEOS4_(ptr noundef nonnull align 8 dereferenceable(32) %3, ptr noundef nonnull align 8 dereferenceable(32) %.sink38) #16
  call void @_ZNSt7__cxx1112basic_stringIcSt11char_traitsIcESaIcEED1Ev(ptr noundef nonnull align 8 dereferenceable(32) %.sink38) #16
  br label %.loopexit

.loopexit:                                        ; preds = %17, %.loopexit.sink.split, %4, %15, %13
  %20 = phi i1 [ false, %15 ], [ false, %13 ], [ true, %4 ], [ false, %.loopexit.sink.split ], [ true, %17 ]
  ret i1 %20
}